target datalayout = "e-m:e-p270:32:32-p271:32:32-p272:64:64-i64:64-i128:128-f80:128-n8:16:32:64-S128"
target triple = "x86_64-unknown-linux-gnu"

; Function Attrs: mustprogress nounwind uwtable
define internal noundef signext i8 @_ZL9U_FAILURE10UErrorCode(i32 noundef %code) #0 {
entry:
  %code.addr = alloca i32, align 4
  store i32 %code, ptr %code.addr, align 4
  %0 = load i32, ptr %code.addr, align 4
  %cmp = icmp sgt i32 %0, 0
  %conv = zext i1 %cmp to i8
  ret i8 %conv
}

; Function Attrs: mustprogress uwtable
define i32 @ucal_get_75(ptr noundef %cal, i32 noundef %field, ptr noundef %status) #1 {
entry:
  %retval = alloca i32, align 4
  %cal.addr = alloca ptr, align 8
  %field.addr = alloca i32, align 4
  %status.addr = alloca ptr, align 8
  store ptr %cal, ptr %cal.addr, align 8
  store i32 %field, ptr %field.addr, align 4
  store ptr %status, ptr %status.addr, align 8
  %0 = load ptr, ptr %status.addr, align 8
  %1 = load i32, ptr %0, align 4
  %call = call noundef signext i8 @_ZL9U_FAILURE10UErrorCode(i32 noundef %1)
  %tobool = icmp ne i8 %call, 0
  br i1 %tobool, label %if.then, label %if.end

if.then:                                          ; preds = %entry
  store i32 -1, ptr %retval, align 4
  br label %return

if.end:                                           ; preds = %entry
  %2 = load i32, ptr %field.addr, align 4
  %cmp = icmp slt i32 %2, 0
  br i1 %cmp, label %if.then2, label %lor.lhs.false

lor.lhs.false:                                    ; preds = %if.end
  %3 = load i32, ptr %field.addr, align 4
  %cmp1 = icmp sle i32 24, %3
  br i1 %cmp1, label %if.then2, label %if.end3

if.then2:                                         ; preds = %lor.lhs.false, %if.end
  %4 = load ptr, ptr %status.addr, align 8
  store i32 1, ptr %4, align 4
  store i32 -1, ptr %retval, align 4
  br label %return

if.end3:                                          ; preds = %lor.lhs.false
  %5 = load ptr, ptr %cal.addr, align 8
  %6 = load i32, ptr %field.addr, align 4
  %7 = load ptr, ptr %status.addr, align 8
  %call4 = call noundef i32 @_ZNK6icu_758Calendar3getE19UCalendarDateFieldsR10UErrorCode(ptr noundef nonnull align 8 dereferenceable(618) %5, i32 noundef %6, ptr noundef nonnull align 4 dereferenceable(4) %7)
  store i32 %call4, ptr %retval, align 4
  br label %return

return:                                           ; preds = %if.end3, %if.then2, %if.then
  %8 = load i32, ptr %retval, align 4
  ret i32 %8
}